target datalayout = "e-m:e-p270:32:32-p271:32:32-p272:64:64-i64:64-i128:128-f80:128-n8:16:32:64-S128"
target triple = "x86_64-pc-linux-gnu"

%struct.FT_Vector_ = type { i64, i64 }
%struct.FT_StrokerRec_ = type { i64, i64, %struct.FT_Vector_, i64, i8, i8, i64, %struct.FT_Vector_, i64, i8, i32, i32, i32, i64, i64, [2 x %struct.FT_StrokeBorderRec_], ptr }
%struct.FT_StrokeBorderRec_ = type { i32, i32, ptr, ptr, i8, i32, ptr, i8 }

; Function Attrs: nounwind uwtable
define internal i32 @FT_MulFix_x86_64(i32 noundef %0, i32 noundef %1) #0 {
  %3 = alloca i32, align 4
  %4 = alloca i32, align 4
  %5 = alloca i64, align 8
  %6 = alloca i64, align 8
  store i32 %0, ptr %3, align 4
  store i32 %1, ptr %4, align 4
  %7 = load i32, ptr %3, align 4
  %8 = sext i32 %7 to i64
  %9 = load i32, ptr %4, align 4
  %10 = sext i32 %9 to i64
  %11 = mul nsw i64 %8, %10
  store i64 %11, ptr %5, align 8
  %12 = load i64, ptr %5, align 8
  %13 = ashr i64 %12, 63
  store i64 %13, ptr %6, align 8
  %14 = load i64, ptr %6, align 8
  %15 = add nsw i64 32768, %14
  %16 = load i64, ptr %5, align 8
  %17 = add nsw i64 %16, %15
  store i64 %17, ptr %5, align 8
  %18 = load i64, ptr %5, align 8
  %19 = ashr i64 %18, 16
  %20 = trunc i64 %19 to i32
  ret i32 %20
}

; Function Attrs: nounwind uwtable
define internal i32 @ft_stroke_border_arcto(ptr noundef %0, ptr noundef %1, i64 noundef %2, i64 noundef %3, i64 noundef %4) #0 {
  %6 = alloca ptr, align 8
  %7 = alloca ptr, align 8
  %8 = alloca i64, align 8
  %9 = alloca i64, align 8
  %10 = alloca i64, align 8
  %11 = alloca i64, align 8
  %12 = alloca %struct.FT_Vector_, align 8
  %13 = alloca %struct.FT_Vector_, align 8
  %14 = alloca %struct.FT_Vector_, align 8
  %15 = alloca %struct.FT_Vector_, align 8
  %16 = alloca i32, align 4
  %17 = alloca i32, align 4
  %18 = alloca i32, align 4
  store ptr %0, ptr %6, align 8
  store ptr %1, ptr %7, align 8
  store i64 %2, ptr %8, align 8
  store i64 %3, ptr %9, align 8
  store i64 %4, ptr %10, align 8
  store i32 1, ptr %17, align 4
  store i32 0, ptr %18, align 4
  br label %19

19:                                               ; preds = %34, %5
  %20 = load i64, ptr %10, align 8
  %21 = load i32, ptr %17, align 4
  %22 = sext i32 %21 to i64
  %23 = mul nsw i64 5898240, %22
  %24 = icmp sgt i64 %20, %23
  br i1 %24, label %32, label %25

25:                                               ; preds = %19
  %26 = load i64, ptr %10, align 8
  %27 = sub nsw i64 0, %26
  %28 = load i32, ptr %17, align 4
  %29 = sext i32 %28 to i64
  %30 = mul nsw i64 5898240, %29
  %31 = icmp sgt i64 %27, %30
  br label %32

32:                                               ; preds = %25, %19
  %33 = phi i1 [ true, %19 ], [ %31, %25 ]
  br i1 %33, label %34, label %37

34:                                               ; preds = %32
  %35 = load i32, ptr %17, align 4
  %36 = add nsw i32 %35, 1
  store i32 %36, ptr %17, align 4
  br label %19, !llvm.loop !18

37:                                               ; preds = %32
  %38 = load i64, ptr %10, align 8
  %39 = load i32, ptr %17, align 4
  %40 = mul nsw i32 4, %39
  %41 = sext i32 %40 to i64
  %42 = sdiv i64 %38, %41
  %43 = call i64 @FT_Tan(i64 noundef %42)
  store i64 %43, ptr %11, align 8
  %44 = load i64, ptr %11, align 8
  %45 = sdiv i64 %44, 3
  %46 = load i64, ptr %11, align 8
  %47 = add nsw i64 %46, %45
  store i64 %47, ptr %11, align 8
  %48 = load i64, ptr %8, align 8
  %49 = load i64, ptr %9, align 8
  call void @FT_Vector_From_Polar(ptr noundef %12, i64 noundef %48, i64 noundef %49)
  %50 = getelementptr inbounds %struct.FT_Vector_, ptr %12, i32 0, i32 1
  %51 = load i64, ptr %50, align 8
  %52 = sub nsw i64 0, %51
  %53 = trunc i64 %52 to i32
  %54 = load i64, ptr %11, align 8
  %55 = trunc i64 %54 to i32
  %56 = call i32 @FT_MulFix_x86_64(i32 noundef %53, i32 noundef %55)
  %57 = sext i32 %56 to i64
  %58 = getelementptr inbounds %struct.FT_Vector_, ptr %13, i32 0, i32 0
  store i64 %57, ptr %58, align 8
  %59 = getelementptr inbounds %struct.FT_Vector_, ptr %12, i32 0, i32 0
  %60 = load i64, ptr %59, align 8
  %61 = trunc i64 %60 to i32
  %62 = load i64, ptr %11, align 8
  %63 = trunc i64 %62 to i32
  %64 = call i32 @FT_MulFix_x86_64(i32 noundef %61, i32 noundef %63)
  %65 = sext i32 %64 to i64
  %66 = getelementptr inbounds %struct.FT_Vector_, ptr %13, i32 0, i32 1
  store i64 %65, ptr %66, align 8
  %67 = load ptr, ptr %7, align 8
  %68 = getelementptr inbounds %struct.FT_Vector_, ptr %67, i32 0, i32 0
  %69 = load i64, ptr %68, align 8
  %70 = getelementptr inbounds %struct.FT_Vector_, ptr %12, i32 0, i32 0
  %71 = load i64, ptr %70, align 8
  %72 = add nsw i64 %71, %69
  store i64 %72, ptr %70, align 8
  %73 = load ptr, ptr %7, align 8
  %74 = getelementptr inbounds %struct.FT_Vector_, ptr %73, i32 0, i32 1
  %75 = load i64, ptr %74, align 8
  %76 = getelementptr inbounds %struct.FT_Vector_, ptr %12, i32 0, i32 1
  %77 = load i64, ptr %76, align 8
  %78 = add nsw i64 %77, %75
  store i64 %78, ptr %76, align 8
  %79 = getelementptr inbounds %struct.FT_Vector_, ptr %12, i32 0, i32 0
  %80 = load i64, ptr %79, align 8
  %81 = getelementptr inbounds %struct.FT_Vector_, ptr %13, i32 0, i32 0
  %82 = load i64, ptr %81, align 8
  %83 = add nsw i64 %82, %80
  store i64 %83, ptr %81, align 8
  %84 = getelementptr inbounds %struct.FT_Vector_, ptr %12, i32 0, i32 1
  %85 = load i64, ptr %84, align 8
  %86 = getelementptr inbounds %struct.FT_Vector_, ptr %13, i32 0, i32 1
  %87 = load i64, ptr %86, align 8
  %88 = add nsw i64 %87, %85
  store i64 %88, ptr %86, align 8
  store i32 1, ptr %16, align 4
  br label %89

89:                                               ; preds = %167, %37
  %90 = load i32, ptr %16, align 4
  %91 = load i32, ptr %17, align 4
  %92 = icmp sle i32 %90, %91
  br i1 %92, label %93, label %170

93:                                               ; preds = %89
  %94 = load i64, ptr %8, align 8
  %95 = load i64, ptr %9, align 8
  %96 = load i32, ptr %16, align 4
  %97 = sext i32 %96 to i64
  %98 = load i64, ptr %10, align 8
  %99 = mul nsw i64 %97, %98
  %100 = load i32, ptr %17, align 4
  %101 = sext i32 %100 to i64
  %102 = sdiv i64 %99, %101
  %103 = add nsw i64 %95, %102
  call void @FT_Vector_From_Polar(ptr noundef %15, i64 noundef %94, i64 noundef %103)
  %104 = getelementptr inbounds %struct.FT_Vector_, ptr %15, i32 0, i32 1
  %105 = load i64, ptr %104, align 8
  %106 = trunc i64 %105 to i32
  %107 = load i64, ptr %11, align 8
  %108 = trunc i64 %107 to i32
  %109 = call i32 @FT_MulFix_x86_64(i32 noundef %106, i32 noundef %108)
  %110 = sext i32 %109 to i64
  %111 = getelementptr inbounds %struct.FT_Vector_, ptr %14, i32 0, i32 0
  store i64 %110, ptr %111, align 8
  %112 = getelementptr inbounds %struct.FT_Vector_, ptr %15, i32 0, i32 0
  %113 = load i64, ptr %112, align 8
  %114 = sub nsw i64 0, %113
  %115 = trunc i64 %114 to i32
  %116 = load i64, ptr %11, align 8
  %117 = trunc i64 %116 to i32
  %118 = call i32 @FT_MulFix_x86_64(i32 noundef %115, i32 noundef %117)
  %119 = sext i32 %118 to i64
  %120 = getelementptr inbounds %struct.FT_Vector_, ptr %14, i32 0, i32 1
  store i64 %119, ptr %120, align 8
  %121 = load ptr, ptr %7, align 8
  %122 = getelementptr inbounds %struct.FT_Vector_, ptr %121, i32 0, i32 0
  %123 = load i64, ptr %122, align 8
  %124 = getelementptr inbounds %struct.FT_Vector_, ptr %15, i32 0, i32 0
  %125 = load i64, ptr %124, align 8
  %126 = add nsw i64 %125, %123
  store i64 %126, ptr %124, align 8
  %127 = load ptr, ptr %7, align 8
  %128 = getelementptr inbounds %struct.FT_Vector_, ptr %127, i32 0, i32 1
  %129 = load i64, ptr %128, align 8
  %130 = getelementptr inbounds %struct.FT_Vector_, ptr %15, i32 0, i32 1
  %131 = load i64, ptr %130, align 8
  %132 = add nsw i64 %131, %129
  store i64 %132, ptr %130, align 8
  %133 = getelementptr inbounds %struct.FT_Vector_, ptr %15, i32 0, i32 0
  %134 = load i64, ptr %133, align 8
  %135 = getelementptr inbounds %struct.FT_Vector_, ptr %14, i32 0, i32 0
  %136 = load i64, ptr %135, align 8
  %137 = add nsw i64 %136, %134
  store i64 %137, ptr %135, align 8
  %138 = getelementptr inbounds %struct.FT_Vector_, ptr %15, i32 0, i32 1
  %139 = load i64, ptr %138, align 8
  %140 = getelementptr inbounds %struct.FT_Vector_, ptr %14, i32 0, i32 1
  %141 = load i64, ptr %140, align 8
  %142 = add nsw i64 %141, %139
  store i64 %142, ptr %140, align 8
  %143 = load ptr, ptr %6, align 8
  %144 = call i32 @ft_stroke_border_cubicto(ptr noundef %143, ptr noundef %13, ptr noundef %14, ptr noundef %15)
  store i32 %144, ptr %18, align 4
  %145 = load i32, ptr %18, align 4
  %146 = icmp ne i32 %145, 0
  br i1 %146, label %147, label %148

147:                                              ; preds = %93
  br label %170

148:                                              ; preds = %93
  %149 = getelementptr inbounds %struct.FT_Vector_, ptr %15, i32 0, i32 0
  %150 = load i64, ptr %149, align 8
  %151 = getelementptr inbounds %struct.FT_Vector_, ptr %14, i32 0, i32 0
  %152 = load i64, ptr %151, align 8
  %153 = sub nsw i64 %150, %152
  %154 = getelementptr inbounds %struct.FT_Vector_, ptr %15, i32 0, i32 0
  %155 = load i64, ptr %154, align 8
  %156 = add nsw i64 %153, %155
  %157 = getelementptr inbounds %struct.FT_Vector_, ptr %13, i32 0, i32 0
  store i64 %156, ptr %157, align 8
  %158 = getelementptr inbounds %struct.FT_Vector_, ptr %15, i32 0, i32 1
  %159 = load i64, ptr %158, align 8
  %160 = getelementptr inbounds %struct.FT_Vector_, ptr %14, i32 0, i32 1
  %161 = load i64, ptr %160, align 8
  %162 = sub nsw i64 %159, %161
  %163 = getelementptr inbounds %struct.FT_Vector_, ptr %15, i32 0, i32 1
  %164 = load i64, ptr %163, align 8
  %165 = add nsw i64 %162, %164
  %166 = getelementptr inbounds %struct.FT_Vector_, ptr %13, i32 0, i32 1
  store i64 %165, ptr %166, align 8
  br label %167

167:                                              ; preds = %148
  %168 = load i32, ptr %16, align 4
  %169 = add nsw i32 %168, 1
  store i32 %169, ptr %16, align 4
  br label %89, !llvm.loop !19

170:                                              ; preds = %147, %89
  %171 = load i32, ptr %18, align 4
  ret i32 %171
}

; Function Attrs: nounwind uwtable
define internal i32 @ft_stroker_arcto(ptr noundef %0, i32 noundef %1) #0 {
  %3 = alloca ptr, align 8
  %4 = alloca i32, align 4
  %5 = alloca i64, align 8
  %6 = alloca i64, align 8
  %7 = alloca i64, align 8
  %8 = alloca i32, align 4
  %9 = alloca ptr, align 8
  store ptr %0, ptr %3, align 8
  store i32 %1, ptr %4, align 4
  %10 = load ptr, ptr %3, align 8
  %11 = getelementptr inbounds %struct.FT_StrokerRec_, ptr %10, i32 0, i32 14
  %12 = load i64, ptr %11, align 8
  store i64 %12, ptr %7, align 8
  store i32 0, ptr %8, align 4
  %13 = load ptr, ptr %3, align 8
  %14 = getelementptr inbounds %struct.FT_StrokerRec_, ptr %13, i32 0, i32 15
  %15 = getelementptr inbounds [2 x %struct.FT_StrokeBorderRec_], ptr %14, i64 0, i64 0
  %16 = load i32, ptr %4, align 4
  %17 = sext i32 %16 to i64
  %18 = getelementptr inbounds %struct.FT_StrokeBorderRec_, ptr %15, i64 %17
  store ptr %18, ptr %9, align 8
  %19 = load i32, ptr %4, align 4
  %20 = sext i32 %19 to i64
  %21 = mul nsw i64 %20, 11796480
  %22 = sub nsw i64 5898240, %21
  store i64 %22, ptr %6, align 8
  %23 = load ptr, ptr %3, align 8
  %24 = getelementptr inbounds %struct.FT_StrokerRec_, ptr %23, i32 0, i32 0
  %25 = load i64, ptr %24, align 8
  %26 = load ptr, ptr %3, align 8
  %27 = getelementptr inbounds %struct.FT_StrokerRec_, ptr %26, i32 0, i32 1
  %28 = load i64, ptr %27, align 8
  %29 = call i64 @FT_Angle_Diff(i64 noundef %25, i64 noundef %28)
  store i64 %29, ptr %5, align 8
  %30 = load i64, ptr %5, align 8
  %31 = icmp eq i64 %30, 11796480
  br i1 %31, label %32, label %36

32:                                               ; preds = %2
  %33 = load i64, ptr %6, align 8
  %34 = sub nsw i64 0, %33
  %35 = mul nsw i64 %34, 2
  store i64 %35, ptr %5, align 8
  br label %36

36:                                               ; preds = %32, %2
  %37 = load ptr, ptr %9, align 8
  %38 = load ptr, ptr %3, align 8
  %39 = getelementptr inbounds %struct.FT_StrokerRec_, ptr %38, i32 0, i32 2
  %40 = load i64, ptr %7, align 8
  %41 = load ptr, ptr %3, align 8
  %42 = getelementptr inbounds %struct.FT_StrokerRec_, ptr %41, i32 0, i32 0
  %43 = load i64, ptr %42, align 8
  %44 = load i64, ptr %6, align 8
  %45 = add nsw i64 %43, %44
  %46 = load i64, ptr %5, align 8
  %47 = call i32 @ft_stroke_border_arcto(ptr noundef %37, ptr noundef %39, i64 noundef %40, i64 noundef %45, i64 noundef %46)
  store i32 %47, ptr %8, align 4
  %48 = load ptr, ptr %9, align 8
  %49 = getelementptr inbounds %struct.FT_StrokeBorderRec_, ptr %48, i32 0, i32 4
  store i8 0, ptr %49, align 8
  %50 = load i32, ptr %8, align 4
  ret i32 %50
}