; Function Attrs: nounwind uwtable
define internal fastcc i32 @ft_stroker_arcto(ptr noundef nonnull captures(none) %0, i32 noundef range(i32 0, 2) %1) unnamed_addr #0 {
  %3 = alloca %struct.FT_Vector_, align 8
  %4 = alloca %struct.FT_Vector_, align 8
  %5 = alloca %struct.FT_Vector_, align 8
  %6 = alloca %struct.FT_Vector_, align 8
  %7 = getelementptr inbounds nuw i8, ptr %0, i64 104
  %8 = load i64, ptr %7, align 8
  %9 = zext nneg i32 %1 to i64
  %10 = load i64, ptr %0, align 8
  %11 = getelementptr inbounds nuw i8, ptr %0, i64 8
  %12 = load i64, ptr %11, align 8
  %13 = tail call i64 @FT_Angle_Diff(i64 noundef %10, i64 noundef %12) #11
  %14 = icmp eq i64 %13, 11796480
  %.neg16 = mul nuw nsw i64 %9, 23592960
  %15 = add nsw i64 %.neg16, -11796480
  %.0 = select i1 %14, i64 %15, i64 %13
  %.neg = mul nuw nsw i64 %9, -11796480
  %16 = getelementptr inbounds nuw i8, ptr %0, i64 112
  %17 = getelementptr inbounds nuw %struct.FT_StrokeBorderRec_, ptr %16, i64 %9
  %18 = load i64, ptr %0, align 8
  call void @llvm.lifetime.start.p0(i64 16, ptr nonnull %3)
  call void @llvm.lifetime.start.p0(i64 16, ptr nonnull %4)
  call void @llvm.lifetime.start.p0(i64 16, ptr nonnull %5)
  call void @llvm.lifetime.start.p0(i64 16, ptr nonnull %6)
  %smax = tail call i64 @llvm.abs.i64(i64 %.0, i1 false)
  %smax17 = tail call i64 @llvm.smax.i64(i64 %smax, i64 5898240)
  %19 = add nsw i64 %smax17, -1
  %20 = udiv i64 %19, 5898240
  %21 = add nsw i64 %.neg, 5898240
  %22 = getelementptr inbounds nuw i8, ptr %0, i64 16
  %23 = add nsw i64 %21, %18
  %24 = add nuw nsw i64 %20, 1
  %25 = shl nuw nsw i64 %24, 2
  %26 = and i64 %25, 4294967292
  %27 = sdiv i64 %.0, %26
  %28 = tail call i64 @FT_Tan(i64 noundef %27) #11
  %29 = sdiv i64 %28, 3
  %30 = add nsw i64 %29, %28
  call void @FT_Vector_From_Polar(ptr noundef nonnull %3, i64 noundef %8, i64 noundef %23) #11
  %31 = getelementptr inbounds nuw i8, ptr %3, i64 8
  %32 = load i64, ptr %31, align 8
  %.neg.i = mul i64 %32, -4294967296
  %33 = ashr exact i64 %.neg.i, 32
  %sext.i = shl i64 %30, 32
  %34 = ashr exact i64 %sext.i, 32
  %35 = mul nsw i64 %34, %33
  %36 = ashr i64 %35, 63
  %37 = add nsw i64 %35, 32768
  %38 = add nsw i64 %37, %36
  %39 = shl i64 %38, 16
  %40 = ashr i64 %39, 32
  %41 = load i64, ptr %3, align 8
  %sext38.i = shl i64 %41, 32
  %42 = ashr exact i64 %sext38.i, 32
  %43 = mul nsw i64 %42, %34
  %44 = ashr i64 %43, 63
  %45 = add nsw i64 %43, 32768
  %46 = add nsw i64 %45, %44
  %47 = shl i64 %46, 16
  %48 = ashr i64 %47, 32
  %49 = getelementptr inbounds nuw i8, ptr %4, i64 8
  %50 = load i64, ptr %22, align 8
  %51 = add nsw i64 %50, %41
  store i64 %51, ptr %3, align 8
  %52 = getelementptr inbounds nuw i8, ptr %0, i64 24
  %53 = load i64, ptr %52, align 8
  %54 = add nsw i64 %53, %32
  store i64 %54, ptr %31, align 8
  %55 = add nsw i64 %40, %51
  store i64 %55, ptr %4, align 8
  %56 = add nsw i64 %48, %54
  store i64 %56, ptr %49, align 8
  %57 = getelementptr inbounds nuw i8, ptr %6, i64 8
  %58 = getelementptr inbounds nuw i8, ptr %5, i64 8
  %59 = and i64 %24, 4294967295
  %umax = call i64 @llvm.umax.i64(i64 %59, i64 1)
  br label %60

60:                                               ; preds = %87, %2
  %indvars.iv50.i = phi i64 [ 1, %2 ], [ %indvars.iv.next51.i, %87 ]
  %61 = mul nsw i64 %indvars.iv50.i, %.0
  %62 = sdiv i64 %61, %24
  %63 = add nsw i64 %62, %23
  call void @FT_Vector_From_Polar(ptr noundef nonnull %6, i64 noundef %8, i64 noundef %63) #11
  %64 = load i64, ptr %57, align 8
  %sext40.i = shl i64 %64, 32
  %65 = ashr exact i64 %sext40.i, 32
  %66 = mul nsw i64 %65, %34
  %67 = ashr i64 %66, 63
  %68 = add nsw i64 %66, 32768
  %69 = add nsw i64 %68, %67
  %70 = shl i64 %69, 16
  %71 = ashr i64 %70, 32
  %72 = load i64, ptr %6, align 8
  %.neg43.i = mul i64 %72, -4294967296
  %73 = ashr exact i64 %.neg43.i, 32
  %74 = mul nsw i64 %73, %34
  %75 = ashr i64 %74, 63
  %76 = add nsw i64 %74, 32768
  %77 = add nsw i64 %76, %75
  %78 = shl i64 %77, 16
  %79 = ashr i64 %78, 32
  %80 = load i64, ptr %22, align 8
  %81 = add nsw i64 %80, %72
  store i64 %81, ptr %6, align 8
  %82 = load i64, ptr %52, align 8
  %83 = add nsw i64 %82, %64
  store i64 %83, ptr %57, align 8
  %84 = add nsw i64 %71, %81
  store i64 %84, ptr %5, align 8
  %85 = add nsw i64 %79, %83
  store i64 %85, ptr %58, align 8
  %86 = call fastcc i32 @ft_stroke_border_cubicto(ptr noundef nonnull %17, ptr noundef %4, ptr noundef %5, ptr noundef %6)
  %.not35.i = icmp eq i32 %86, 0
  br i1 %.not35.i, label %87, label %ft_stroke_border_arcto.exit

87:                                               ; preds = %60
  %88 = load i64, ptr %6, align 8
  %factor.i = shl i64 %88, 1
  %89 = sub i64 %factor.i, %84
  store i64 %89, ptr %4, align 8
  %90 = load i64, ptr %57, align 8
  %factor47.i = shl i64 %90, 1
  %91 = sub i64 %factor47.i, %85
  store i64 %91, ptr %49, align 8
  %indvars.iv.next51.i = add nuw nsw i64 %indvars.iv50.i, 1
  %exitcond.not = icmp eq i64 %indvars.iv50.i, %umax
  br i1 %exitcond.not, label %ft_stroke_border_arcto.exit, label %60, !llvm.loop !19

ft_stroke_border_arcto.exit:                      ; preds = %60, %87
  call void @llvm.lifetime.end.p0(i64 16, ptr nonnull %3)
  call void @llvm.lifetime.end.p0(i64 16, ptr nonnull %4)
  call void @llvm.lifetime.end.p0(i64 16, ptr nonnull %5)
  call void @llvm.lifetime.end.p0(i64 16, ptr nonnull %6)
  %92 = getelementptr inbounds nuw i8, ptr %17, i64 24
  store i8 0, ptr %92, align 8
  ret i32 %86
}